target datalayout = "e-m:e-p270:32:32-p271:32:32-p272:64:64-i64:64-i128:128-f80:128-n8:16:32:64-S128"
target triple = "x86_64-unknown-linux-gnu"

%class.b2ChainShape = type <{ %class.b2Shape, ptr, i32, %struct.b2Vec2, %struct.b2Vec2, [4 x i8] }>
%class.b2Shape = type { ptr, i32, float }
%struct.b2Vec2 = type { float, float }

; Function Attrs: mustprogress uwtable
define linkonce_odr hidden noundef ptr @_Z7b2Alloci(i32 noundef %size) #1 comdat {
entry:
  %size.addr = alloca i32, align 4
  store i32 %size, ptr %size.addr, align 4
  %0 = load i32, ptr %size.addr, align 4
  %call = call noundef ptr @_Z15b2Alloc_Defaulti(i32 noundef %0)
  ret ptr %call
}

; Function Attrs: mustprogress nounwind uwtable
define linkonce_odr hidden void @_ZN7b2ShapeC2Ev(ptr noundef nonnull align 8 dereferenceable(16) %this) unnamed_addr #0 comdat align 2 {
entry:
  %this.addr = alloca ptr, align 8
  store ptr %this, ptr %this.addr, align 8
  %this1 = load ptr, ptr %this.addr, align 8
  store ptr getelementptr inbounds ({ [10 x ptr] }, ptr @_ZTV7b2Shape, i32 0, i32 0, i32 2), ptr %this1, align 8
  ret void
}

; Function Attrs: mustprogress uwtable
define void @_ZN12b2ChainShape11CreateChainEPK6b2Vec2iRS1_S3_(ptr noundef nonnull align 8 dereferenceable(44) %this, ptr noundef %vertices, i32 noundef %count, ptr noundef nonnull align 4 dereferenceable(8) %prevVertex, ptr noundef nonnull align 4 dereferenceable(8) %nextVertex) #1 align 2 {
entry:
  %this.addr = alloca ptr, align 8
  %vertices.addr = alloca ptr, align 8
  %count.addr = alloca i32, align 4
  %prevVertex.addr = alloca ptr, align 8
  %nextVertex.addr = alloca ptr, align 8
  %i = alloca i32, align 4
  store ptr %this, ptr %this.addr, align 8
  store ptr %vertices, ptr %vertices.addr, align 8
  store i32 %count, ptr %count.addr, align 4
  store ptr %prevVertex, ptr %prevVertex.addr, align 8
  store ptr %nextVertex, ptr %nextVertex.addr, align 8
  %this1 = load ptr, ptr %this.addr, align 8
  store i32 1, ptr %i, align 4
  br label %for.cond

for.cond:                                         ; preds = %for.inc, %entry
  %0 = load i32, ptr %i, align 4
  %1 = load i32, ptr %count.addr, align 4
  %cmp = icmp slt i32 %0, %1
  br i1 %cmp, label %for.body, label %for.end

for.body:                                         ; preds = %for.cond
  br label %for.inc

for.inc:                                          ; preds = %for.body
  %2 = load i32, ptr %i, align 4
  %inc = add nsw i32 %2, 1
  store i32 %inc, ptr %i, align 4
  br label %for.cond, !llvm.loop !6

for.end:                                          ; preds = %for.cond
  %3 = load i32, ptr %count.addr, align 4
  %m_count = getelementptr inbounds %class.b2ChainShape, ptr %this1, i32 0, i32 2
  store i32 %3, ptr %m_count, align 8
  %4 = load i32, ptr %count.addr, align 4
  %conv = sext i32 %4 to i64
  %mul = mul i64 %conv, 8
  %conv2 = trunc i64 %mul to i32
  %call = call noundef ptr @_Z7b2Alloci(i32 noundef %conv2)
  %m_vertices = getelementptr inbounds %class.b2ChainShape, ptr %this1, i32 0, i32 1
  store ptr %call, ptr %m_vertices, align 8
  %m_vertices3 = getelementptr inbounds %class.b2ChainShape, ptr %this1, i32 0, i32 1
  %5 = load ptr, ptr %m_vertices3, align 8
  %6 = load ptr, ptr %vertices.addr, align 8
  %m_count4 = getelementptr inbounds %class.b2ChainShape, ptr %this1, i32 0, i32 2
  %7 = load i32, ptr %m_count4, align 8
  %conv5 = sext i32 %7 to i64
  %mul6 = mul i64 %conv5, 8
  call void @llvm.memcpy.p0.p0.i64(ptr align 4 %5, ptr align 4 %6, i64 %mul6, i1 false)
  %8 = load ptr, ptr %prevVertex.addr, align 8
  %m_prevVertex = getelementptr inbounds %class.b2ChainShape, ptr %this1, i32 0, i32 3
  call void @llvm.memcpy.p0.p0.i64(ptr align 4 %m_prevVertex, ptr align 4 %8, i64 8, i1 false)
  %9 = load ptr, ptr %nextVertex.addr, align 8
  %m_nextVertex = getelementptr inbounds %class.b2ChainShape, ptr %this1, i32 0, i32 4
  call void @llvm.memcpy.p0.p0.i64(ptr align 4 %m_nextVertex, ptr align 4 %9, i64 8, i1 false)
  ret void
}

; Function Attrs: mustprogress nounwind uwtable
define linkonce_odr hidden void @_ZN12b2ChainShapeC2Ev(ptr noundef nonnull align 8 dereferenceable(44) %this) unnamed_addr #0 comdat align 2 {
entry:
  %this.addr = alloca ptr, align 8
  store ptr %this, ptr %this.addr, align 8
  %this1 = load ptr, ptr %this.addr, align 8
  call void @_ZN7b2ShapeC2Ev(ptr noundef nonnull align 8 dereferenceable(16) %this1) #9
  store ptr getelementptr inbounds ({ [10 x ptr] }, ptr @_ZTV12b2ChainShape, i32 0, i32 0, i32 2), ptr %this1, align 8
  %m_type = getelementptr inbounds %class.b2Shape, ptr %this1, i32 0, i32 1
  store i32 3, ptr %m_type, align 8
  %m_radius = getelementptr inbounds %class.b2Shape, ptr %this1, i32 0, i32 2
  store float 0x3F847AE140000000, ptr %m_radius, align 4
  %m_vertices = getelementptr inbounds %class.b2ChainShape, ptr %this1, i32 0, i32 1
  store ptr null, ptr %m_vertices, align 8
  %m_count = getelementptr inbounds %class.b2ChainShape, ptr %this1, i32 0, i32 2
  store i32 0, ptr %m_count, align 8
  ret void
}

; Function Attrs: mustprogress uwtable
define noundef ptr @_ZNK12b2ChainShape5CloneEP16b2BlockAllocator(ptr noundef nonnull align 8 dereferenceable(44) %this, ptr noundef %allocator) unnamed_addr #1 align 2 {
entry:
  %this.addr = alloca ptr, align 8
  %allocator.addr = alloca ptr, align 8
  %mem = alloca ptr, align 8
  %clone = alloca ptr, align 8
  store ptr %this, ptr %this.addr, align 8
  store ptr %allocator, ptr %allocator.addr, align 8
  %this1 = load ptr, ptr %this.addr, align 8
  %0 = load ptr, ptr %allocator.addr, align 8
  %call = call noundef ptr @_ZN16b2BlockAllocator8AllocateEi(ptr noundef nonnull align 8 dereferenceable(128) %0, i32 noundef 48)
  store ptr %call, ptr %mem, align 8
  %1 = load ptr, ptr %mem, align 8
  call void @_ZN12b2ChainShapeC2Ev(ptr noundef nonnull align 8 dereferenceable(44) %1)
  store ptr %1, ptr %clone, align 8
  %2 = load ptr, ptr %clone, align 8
  %m_vertices = getelementptr inbounds %class.b2ChainShape, ptr %this1, i32 0, i32 1
  %3 = load ptr, ptr %m_vertices, align 8
  %m_count = getelementptr inbounds %class.b2ChainShape, ptr %this1, i32 0, i32 2
  %4 = load i32, ptr %m_count, align 8
  %m_prevVertex = getelementptr inbounds %class.b2ChainShape, ptr %this1, i32 0, i32 3
  %m_nextVertex = getelementptr inbounds %class.b2ChainShape, ptr %this1, i32 0, i32 4
  call void @_ZN12b2ChainShape11CreateChainEPK6b2Vec2iRS1_S3_(ptr noundef nonnull align 8 dereferenceable(44) %2, ptr noundef %3, i32 noundef %4, ptr noundef nonnull align 4 dereferenceable(8) %m_prevVertex, ptr noundef nonnull align 4 dereferenceable(8) %m_nextVertex)
  %5 = load ptr, ptr %clone, align 8
  ret ptr %5
}