; Function Attrs: mustprogress uwtable
define noundef ptr @_ZNK12b2ChainShape5CloneEP16b2BlockAllocator(ptr nocapture noundef nonnull readonly align 8 dereferenceable(44) %this, ptr noundef nonnull %allocator) unnamed_addr #1 align 2 {
entry:
  %call = tail call noundef ptr @_ZN16b2BlockAllocator8AllocateEi(ptr noundef nonnull align 8 dereferenceable(128) %allocator, i32 noundef 48)
  store ptr getelementptr inbounds ({ [10 x ptr] }, ptr @_ZTV12b2ChainShape, i64 0, i32 0, i64 2), ptr %call, align 8
  %m_type.i = getelementptr inbounds i8, ptr %call, i64 8
  store i32 3, ptr %m_type.i, align 8
  %m_radius.i = getelementptr inbounds i8, ptr %call, i64 12
  store float 0x3F847AE140000000, ptr %m_radius.i, align 4
  %m_vertices.i = getelementptr inbounds i8, ptr %call, i64 16
  store ptr null, ptr %m_vertices.i, align 8
  %m_count.i = getelementptr inbounds i8, ptr %call, i64 24
  store i32 0, ptr %m_count.i, align 8
  %m_vertices = getelementptr inbounds i8, ptr %this, i64 16
  %0 = load ptr, ptr %m_vertices, align 8
  %m_count = getelementptr inbounds i8, ptr %this, i64 24
  %1 = load i32, ptr %m_count, align 8
  %m_prevVertex = getelementptr inbounds i8, ptr %this, i64 28
  %m_nextVertex = getelementptr inbounds i8, ptr %this, i64 36
  store i32 %1, ptr %m_count.i, align 8
  %mul.i = shl i32 %1, 3
  %call.i.i = tail call noundef ptr @_Z15b2Alloc_Defaulti(i32 noundef %mul.i)
  store ptr %call.i.i, ptr %m_vertices.i, align 8
  %2 = load i32, ptr %m_count.i, align 8
  %conv5.i = sext i32 %2 to i64
  %mul6.i = shl nsw i64 %conv5.i, 3
  tail call void @llvm.memcpy.p0.p0.i64(ptr align 4 %call.i.i, ptr align 4 %0, i64 %mul6.i, i1 false)
  %m_prevVertex.i = getelementptr inbounds i8, ptr %call, i64 28
  %3 = load i64, ptr %m_prevVertex, align 4
  store i64 %3, ptr %m_prevVertex.i, align 4
  %m_nextVertex.i = getelementptr inbounds i8, ptr %call, i64 36
  %4 = load i64, ptr %m_nextVertex, align 4
  store i64 %4, ptr %m_nextVertex.i, align 4
  ret ptr %call
}